target datalayout = "e-m:e-p270:32:32-p271:32:32-p272:64:64-i64:64-i128:128-f80:128-n8:16:32:64-S128"
target triple = "x86_64-pc-linux-gnu"

%"class.std::__cxx11::basic_string" = type { %"struct.std::__cxx11::basic_string<char>::_Alloc_hider", i64, %union.anon }
%"struct.std::__cxx11::basic_string<char>::_Alloc_hider" = type { ptr }
%union.anon = type { i64, [8 x i8] }
%"class.std::unique_ptr.34" = type { %"struct.std::__uniq_ptr_data.35" }
%"struct.std::__uniq_ptr_data.35" = type { %"class.std::__uniq_ptr_impl.36" }
%"class.std::__uniq_ptr_impl.36" = type { %"class.std::tuple.37" }
%"class.std::tuple.37" = type { %"struct.std::_Tuple_impl.38" }
%"struct.std::_Tuple_impl.38" = type { %"struct.std::_Head_base.41" }
%"struct.std::_Head_base.41" = type { ptr }
%"class.osgeo::proj::DiskChunkCache" = type { ptr, %"class.std::__cxx11::basic_string", ptr, %"class.std::unique_ptr.34" }

@.str.3 = private unnamed_addr constant [3 x i8] c"%s\00", align 1
@.str.32 = private unnamed_addr constant [7 x i8] c"COMMIT\00", align 1

; Function Attrs: mustprogress uwtable
define hidden void @_ZN5osgeo4proj14DiskChunkCache14commitAndCloseEv(ptr noundef nonnull align 8 dereferenceable(56) %0) #5 align 2 {
  %2 = alloca ptr, align 8
  store ptr %0, ptr %2, align 8, !tbaa !49
  %3 = load ptr, ptr %2, align 8
  %4 = getelementptr inbounds nuw %"class.osgeo::proj::DiskChunkCache", ptr %3, i32 0, i32 2
  %5 = load ptr, ptr %4, align 8, !tbaa !61
  %6 = icmp ne ptr %5, null
  br i1 %6, label %7, label %23

7:                                                ; preds = %1
  %8 = getelementptr inbounds nuw %"class.osgeo::proj::DiskChunkCache", ptr %3, i32 0, i32 2
  %9 = load ptr, ptr %8, align 8, !tbaa !61
  %10 = call i32 @sqlite3_exec(ptr noundef %9, ptr noundef @.str.32, ptr noundef null, ptr noundef null, ptr noundef null)
  %11 = icmp ne i32 %10, 0
  br i1 %11, label %12, label %18

12:                                               ; preds = %7
  %13 = getelementptr inbounds nuw %"class.osgeo::proj::DiskChunkCache", ptr %3, i32 0, i32 0
  %14 = load ptr, ptr %13, align 8, !tbaa !51
  %15 = getelementptr inbounds nuw %"class.osgeo::proj::DiskChunkCache", ptr %3, i32 0, i32 2
  %16 = load ptr, ptr %15, align 8, !tbaa !61
  %17 = call ptr @sqlite3_errmsg(ptr noundef %16)
  call void (ptr, i32, ptr, ...) @_Z6pj_logP6pj_ctxiPKcz(ptr noundef %14, i32 noundef 1, ptr noundef @.str.3, ptr noundef %17)
  br label %18

18:                                               ; preds = %12, %7
  %19 = getelementptr inbounds nuw %"class.osgeo::proj::DiskChunkCache", ptr %3, i32 0, i32 2
  %20 = load ptr, ptr %19, align 8, !tbaa !61
  %21 = call i32 @sqlite3_close(ptr noundef %20)
  %22 = getelementptr inbounds nuw %"class.osgeo::proj::DiskChunkCache", ptr %3, i32 0, i32 2
  store ptr null, ptr %22, align 8, !tbaa !61
  br label %23

23:                                               ; preds = %18, %1
  ret void
}